; ModuleID = '29/746.c'
source_filename = "29/746.c"
target datalayout = "e-m:e-p270:32:32-p271:32:32-p272:64:64-i64:64-f80:128-n8:16:32:64-S128"
target triple = "x86_64-pc-linux-gnu"

@.str = private unnamed_addr constant [3 x i8] c"%d\00", align 1
@.str.1 = private unnamed_addr constant [6 x i8] c"%.3f\0A\00", align 1
@__const.Fibonacci.a = private unnamed_addr constant [2 x i32] [i32 1, i32 2], align 4

; Function Attrs: noinline nounwind uwtable
define dso_local i32 @main() #0 {
  %1 = alloca i32, align 4
  %2 = alloca i32, align 4
  %3 = alloca float, align 4
  %4 = alloca i32, align 4
  %5 = alloca i32, align 4
  %6 = alloca [100 x i32], align 16
  store i32 0, i32* %1, align 4
  %7 = call i32 (i8*, ...) @__isoc99_scanf(i8* getelementptr inbounds ([3 x i8], [3 x i8]* @.str, i64 0, i64 0), i32* %2)
  store i32 0, i32* %4, align 4
  br label %8

8:                                                ; preds = %17, %0
  %9 = load i32, i32* %4, align 4
  %10 = load i32, i32* %2, align 4
  %11 = icmp slt i32 %9, %10
  br i1 %11, label %12, label %20

12:                                               ; preds = %8
  %13 = load i32, i32* %4, align 4
  %14 = sext i32 %13 to i64
  %15 = getelementptr inbounds [100 x i32], [100 x i32]* %6, i64 0, i64 %14
  %16 = call i32 (i8*, ...) @__isoc99_scanf(i8* getelementptr inbounds ([3 x i8], [3 x i8]* @.str, i64 0, i64 0), i32* %15)
  br label %17

17:                                               ; preds = %12
  %18 = load i32, i32* %4, align 4
  %19 = add nsw i32 %18, 1
  store i32 %19, i32* %4, align 4
  br label %8

20:                                               ; preds = %8
  store i32 0, i32* %4, align 4
  br label %21

21:                                               ; preds = %51, %20
  %22 = load i32, i32* %4, align 4
  %23 = load i32, i32* %2, align 4
  %24 = icmp slt i32 %22, %23
  br i1 %24, label %25, label %54

25:                                               ; preds = %21
  store float 0.000000e+00, float* %3, align 4
  store i32 0, i32* %5, align 4
  br label %26

26:                                               ; preds = %44, %25
  %27 = load i32, i32* %5, align 4
  %28 = load i32, i32* %4, align 4
  %29 = sext i32 %28 to i64
  %30 = getelementptr inbounds [100 x i32], [100 x i32]* %6, i64 0, i64 %29
  %31 = load i32, i32* %30, align 4
  %32 = icmp slt i32 %27, %31
  br i1 %32, label %33, label %47

33:                                               ; preds = %26
  %34 = load i32, i32* %5, align 4
  %35 = add nsw i32 %34, 1
  %36 = call i32 @Fibonacci(i32 %35)
  %37 = sitofp i32 %36 to float
  %38 = load i32, i32* %5, align 4
  %39 = call i32 @Fibonacci(i32 %38)
  %40 = sitofp i32 %39 to float
  %41 = fdiv float %37, %40
  %42 = load float, float* %3, align 4
  %43 = fadd float %41, %42
  store float %43, float* %3, align 4
  br label %44

44:                                               ; preds = %33
  %45 = load i32, i32* %5, align 4
  %46 = add nsw i32 %45, 1
  store i32 %46, i32* %5, align 4
  br label %26

47:                                               ; preds = %26
  %48 = load float, float* %3, align 4
  %49 = fpext float %48 to double
  %50 = call i32 (i8*, ...) @printf(i8* getelementptr inbounds ([6 x i8], [6 x i8]* @.str.1, i64 0, i64 0), double %49)
  br label %51

51:                                               ; preds = %47
  %52 = load i32, i32* %4, align 4
  %53 = add nsw i32 %52, 1
  store i32 %53, i32* %4, align 4
  br label %21

54:                                               ; preds = %21
  ret i32 0
}

declare dso_local i32 @__isoc99_scanf(i8*, ...) #1

; Function Attrs: noinline nounwind uwtable
define dso_local i32 @Fibonacci(i32 %0) #0 {
  %2 = alloca i32, align 4
  %3 = alloca i32, align 4
  %4 = alloca [2 x i32], align 4
  %5 = alloca i32, align 4
  %6 = alloca i32, align 4
  store i32 %0, i32* %3, align 4
  %7 = bitcast [2 x i32]* %4 to i8*
  call void @llvm.memcpy.p0i8.p0i8.i64(i8* align 4 %7, i8* align 4 bitcast ([2 x i32]* @__const.Fibonacci.a to i8*), i64 8, i1 false)
  store i32 0, i32* %5, align 4
  store i32 0, i32* %6, align 4
  %8 = load i32, i32* %3, align 4
  %9 = icmp eq i32 %8, 1
  br i1 %9, label %10, label %13

10:                                               ; preds = %1
  %11 = getelementptr inbounds [2 x i32], [2 x i32]* %4, i64 0, i64 1
  %12 = load i32, i32* %11, align 4
  store i32 %12, i32* %2, align 4
  br label %54

13:                                               ; preds = %1
  %14 = load i32, i32* %3, align 4
  %15 = icmp eq i32 %14, 0
  br i1 %15, label %16, label %19

16:                                               ; preds = %13
  %17 = getelementptr inbounds [2 x i32], [2 x i32]* %4, i64 0, i64 0
  %18 = load i32, i32* %17, align 4
  store i32 %18, i32* %2, align 4
  br label %54

19:                                               ; preds = %13
  %20 = load i32, i32* %3, align 4
  %21 = icmp sge i32 %20, 2
  br i1 %21, label %22, label %52

22:                                               ; preds = %19
  store i32 2, i32* %6, align 4
  br label %23

23:                                               ; preds = %43, %22
  %24 = load i32, i32* %6, align 4
  %25 = load i32, i32* %3, align 4
  %26 = icmp sle i32 %24, %25
  br i1 %26, label %27, label %46

27:                                               ; preds = %23
  %28 = load i32, i32* %5, align 4
  %29 = sext i32 %28 to i64
  %30 = getelementptr inbounds [2 x i32], [2 x i32]* %4, i64 0, i64 %29
  %31 = load i32, i32* %30, align 4
  %32 = load i32, i32* %5, align 4
  %33 = sub nsw i32 1, %32
  %34 = sext i32 %33 to i64
  %35 = getelementptr inbounds [2 x i32], [2 x i32]* %4, i64 0, i64 %34
  %36 = load i32, i32* %35, align 4
  %37 = add nsw i32 %31, %36
  %38 = load i32, i32* %5, align 4
  %39 = sext i32 %38 to i64
  %40 = getelementptr inbounds [2 x i32], [2 x i32]* %4, i64 0, i64 %39
  store i32 %37, i32* %40, align 4
  %41 = load i32, i32* %5, align 4
  %42 = sub nsw i32 1, %41
  store i32 %42, i32* %5, align 4
  br label %43

43:                                               ; preds = %27
  %44 = load i32, i32* %6, align 4
  %45 = add nsw i32 %44, 1
  store i32 %45, i32* %6, align 4
  br label %23

46:                                               ; preds = %23
  %47 = load i32, i32* %5, align 4
  %48 = sub nsw i32 1, %47
  %49 = sext i32 %48 to i64
  %50 = getelementptr inbounds [2 x i32], [2 x i32]* %4, i64 0, i64 %49
  %51 = load i32, i32* %50, align 4
  store i32 %51, i32* %2, align 4
  br label %54

52:                                               ; preds = %19
  br label %53

53:                                               ; preds = %52
  br label %54

54:                                               ; preds = %10, %16, %46, %53
  %55 = load i32, i32* %2, align 4
  ret i32 %55
}

declare dso_local i32 @printf(i8*, ...) #1

; Function Attrs: argmemonly nounwind willreturn
declare void @llvm.memcpy.p0i8.p0i8.i64(i8* noalias nocapture writeonly, i8* noalias nocapture readonly, i64, i1 immarg) #2


!llvm.module.flags = !{!0}
!llvm.ident = !{!1}

!0 = !{i32 1, !"wchar_size", i32 4}
!1 = !{!"clang version 10.0.0-4ubuntu1 "}
